(dp1
S'output'
p2
S"<type 'exceptions.AttributeError'> 'Row' object has no attribute 'cancelado'"
p3
sS'layer'
p4
S'/home/marco/trabajo/experimental/web2py/applications/sisapretty/views/default/cobros.html'
p5
sS'code'
p6
S'response.write(\'<!DOCTYPE html>\\r\\n<html lang="en">\\r\\n  <head>\\r\\n    <meta charset="utf-8">\\r\\n    <meta name="viewport" content="width=device-width, initial-scale=1.0">\\r\\n    <meta name="description" content="">\\r\\n    <meta name="author" content="">\\r\\n\\r\\n    <title>\', escape=False)\nresponse.write(response.title)\nresponse.write(\'</title>\\r\\n\\r\\n    <!-- Page Specific CSS -->\\r\\n    \\r\\n    \', escape=False)\nresponse.write(\'<script type="text/javascript"><!--\\n    // These variables are used by the web2py_ajax_init function in web2py_ajax.js (which is loaded below).\\n    var w2p_ajax_confirm_message = "\', escape=False)\nresponse.write(T(\'Are you sure you want to delete this object?\'))\nresponse.write(\'";\\n    var w2p_ajax_disable_with_message = "\', escape=False)\nresponse.write(T(\'Working...\'))\nresponse.write(\'";\\n    var w2p_ajax_date_format = "\', escape=False)\nresponse.write(T(\'%Y-%m-%d\'))\nresponse.write(\'";\\n    var w2p_ajax_datetime_format = "\', escape=False)\nresponse.write(T(\'%Y-%m-%d %H:%M:%S\'))\nresponse.write(\'";\\n    var ajax_error_500 = \\\'\', escape=False)\nresponse.write(T.M(\'An error occured, please [[reload %s]] the page\') % URL(args=request.args, vars=request.get_vars))\nresponse.write("\'\\n    //--></script>\\n", escape=False)\nresponse.files.insert(0,URL(\'static\',\'js/jquery.js\'))\nresponse.files.insert(1,URL(\'static\',\'css/calendar.css\'))\nresponse.files.insert(2,URL(\'static\',\'js/calendar.js\'))\nresponse.files.insert(3,URL(\'static\',\'js/web2py.js\'))\nresponse.include_meta()\nresponse.include_files()\nresponse.write(\'\\n\', escape=False)\nresponse.write(\'\\r\\n\\r\\n    <!-- Bootstrap core CSS -->\\r\\n    <link href="\', escape=False)\nresponse.write(URL(\'static\',\'css/bootstrap.css\'))\nresponse.write(\'" rel="stylesheet">\\r\\n    <link href="\', escape=False)\nresponse.write(URL(\'static\',\'css/jquery.dataTables.css\'))\nresponse.write(\'" rel="stylesheet">\\r\\n    <link rel="shortcut icon" href="\', escape=False)\nresponse.write(URL(\'static\',\'images/favicon.ico\'))\nresponse.write(\'" type="image/x-icon">\\r\\n    <!-- Add custom CSS here -->\\r\\n    <link href="\', escape=False)\nresponse.write(URL(\'static\',\'css/sb-admin.css\'))\nresponse.write(\'" rel="stylesheet">\\r\\n    <link rel="stylesheet" href="\', escape=False)\nresponse.write(URL(\'static\',\'font-awesome/css/font-awesome.min.css\'))\nresponse.write(\'">\\r\\n    <link href="\', escape=False)\nresponse.write(URL(\'static\',\'css/web2py.css\'))\nresponse.write(\'" rel="stylesheet">\\r\\n    <link href="\', escape=False)\nresponse.write(URL(\'static\',\'css/xignus.css\'))\nresponse.write(\'" rel="stylesheet">\\r\\n    \\r\\n    <!-- include stylesheets -->\\r\\n    \', escape=False)\nresponse.files.insert(0,URL(\'static\',\'css/web2py.css\'))\nresponse.files.insert(1,URL(\'static\',\'css/bootstrap.min.css\'))\nresponse.files.insert(2,URL(\'static\',\'css/bootstrap-responsive.min.css\'))\nresponse.files.insert(3,URL(\'static\',\'css/web2py_bootstrap.css\'))\nresponse.files.insert(4,URL(\'static\',\'css/xignus.css\'))\nresponse.write(\'\\r\\n\\r\\n  </head>\\r\\n\\r\\n  <body>\\r\\n\\r\\n    <div id="wrapper">\\r\\n       <div class="flash">\', escape=False)\nresponse.write(response.flash or \'\')\nresponse.write(\'</div>\\r\\n      <!-- Sidebar -->\\r\\n      <nav class="navbar navbar-inverse navbar-fixed-top" role="navigation">\\r\\n        <!-- Brand and toggle get grouped for better mobile display -->\\r\\n        <div class="navbar-header">\\r\\n          <button type="button" class="navbar-toggle" data-toggle="collapse" data-target=".navbar-ex1-collapse">\\r\\n            <span class="sr-only">Toggle navigation</span>\\r\\n            <span class="icon-bar"></span>\\r\\n            <span class="icon-bar"></span>\\r\\n            <span class="icon-bar"></span>\\r\\n          </button>\\r\\n          \', escape=False)\nresponse.write(response.logo or \'\')\nresponse.write(\'\\r\\n        </div>\\r\\n\\r\\n        <!-- Collect the nav links, forms, and other content for toggling -->\\r\\n        <div class="collapse navbar-collapse navbar-ex1-collapse">\\r\\n          <ul class="nav navbar-nav side-nav">\\r\\n            <li>\', escape=False)\nresponse.write(A(I(_class=\'fa fa-home icon-white\'),\' Inicio\', _href=URL(\'default\',\'index\')))\nresponse.write(\'</li>\\r\\n            <li>\', escape=False)\nresponse.write(A(I(_class=\'fa fa-user icon-white\'),\' Clientes\', _href=URL(\'default\',\'clientes\')))\nresponse.write(\'</li>\\r\\n\\t    <li>\', escape=False)\nresponse.write(A(I(_class=\'fa fa-gavel icon-white\'),\' Cobros pendientes\', _href=URL(\'default\',\'cobros\')))\nresponse.write(\'</li>\\r\\n\\t    <li>\', escape=False)\nresponse.write(A(I(_class=\'fa fa-bell icon-white\'),\' Proximos vencimientos\', _href=URL(\'default\',\'vencimientos\')))\nresponse.write(\'</li>\\r\\n\\t    <li>\', escape=False)\nresponse.write(A(I(_class=\'fa fa-group icon-white\'),\' Fumigadores\', _href=URL(\'default\',\'fumigadores\')))\nresponse.write(\'</li>\\r\\n          </ul>\\r\\n\\r\\n\\t  <ul id="navbar" class="nav pull-right">\', escape=False)\nresponse.write(\'auth\' in globals() and auth.navbar(mode="dropdown") or \'\')\nresponse.write(\'</ul>\\r\\n        </div><!-- /.navbar-collapse -->\\r\\n      </nav>\\r\\n      \\r\\n      <div id="page-wrapper">\\r\\n\\t\', escape=False)\nif response.title:\n    response.write(\'\\r\\n        <div class="span12">\\r\\n          <div class="page-header">\\r\\n            <h1>\\r\\n              \', escape=False)\n    response.write(response.title)\n    response.write(\'\\r\\n              <small>\', escape=False)\n    response.write(response.subtitle or \'\')\n    response.write(\'</small>\\r\\n            </h1>\\r\\n          </div>\\r\\n        </div>\\r\\n\\t\', escape=False)\n    pass\nresponse.write(\'\\r\\n\\t\', escape=False)\nresponse.write(\'\\n\\n<table id=\\\'fbody\\\' class="display table table-striped table-hover table-condensed">\\n  <thead>\\n    <th>Establecimiento </th>\\n    <th>Cliente </th>\\n    <th>Fecha de fumigacion </th>\\n    <th>Estado</th>\\n  </thead>\\n  <tbody >\\n        \', escape=False)\nfor cobro in cobros:\n    response.write(\'\\n        \', escape=False)\n    if ((cobro.cobros.pagado==0)and(cobro.cobros.cancelado==True)and(cobro.cobros.importe>0)):\n        response.write(\'\\n\\n\\t\', escape=False)\n    elif ((cobro.cobros.pagado>0)and(cobro.cobros.cancelado==False)and(cobro.cobros.importe>0)):\n        response.write(\'\\n\\t    <tr class="warning">\\n\\t      <td>\', escape=False)\n        response.write(cobro.establecimientos.nombre)\n        response.write(\'</td>\\n\\t      <td>\', escape=False)\n        response.write(cobro.clientes.nombre+" "+cobro.clientes.apellido)\n        response.write(\'</td>\\n\\t      <td>\', escape=False)\n        response.write(cobro.certificados.fFumigacion)\n        response.write(\'</td>\\n\\t      <td><a href="#editarCobro\', escape=False)\n        response.write(cobro.cobros.id)\n        response.write(\'" role="button" class="btn btn-warning" data-toggle="modal"><i class="fa fa-pencil fa-white"></i> Saldo pendiente ($ \', escape=False)\n        response.write(cobro.cobros.importe - cobro.cobros.pagado)\n        response.write(\')</a></td>\\n\\t    </tr>\\n\\t\', escape=False)\n    else:\n        response.write(\'\\n\\t    <tr class="danger">\\n\\t      <td>\', escape=False)\n        response.write(cobro.establecimientos.nombre)\n        response.write(\'</td>\\n\\t      <td>\', escape=False)\n        response.write(cobro.clientes.nombre+" "+cobro.clientes.apellido)\n        response.write(\'</td>\\n\\t      <td>\', escape=False)\n        response.write(cobro.certificados.fFumigacion)\n        response.write(\'</td>\\n\\t      <td><a href="#editarCobro\', escape=False)\n        response.write(cobro.cobros.id)\n        response.write(\'" role="button" class="btn btn-danger" data-toggle="modal"><i class="fa fa-pencil fa-white"></i> Adeudado</a></td>\\n\\t    </tr>\\n        \', escape=False)\n        pass\n    response.write(\'\\n    \', escape=False)\n    pass\nresponse.write(\'\\n  </tbody>\\n</table>\\n\\n<!-- editar cobros -->\\n\', escape=False)\nfor cobro in cobros:\n    response.write(\'\\n<div class="modal fade" id="editarCobro\', escape=False)\n    response.write(cobro.cobros.id)\n    response.write(\'" tabindex="-1" role="dialog" aria-labelledby="editarCobro\', escape=False)\n    response.write(cobro.cobros.id)\n    response.write(\'Label" aria-hidden="true">\\n  <div class="modal-dialog">\\n    <div class="modal-content">\\n      <div class="modal-header">\\n        <button type="button" class="close" data-dismiss="modal" aria-hidden="true">&times;</button>\\n        <h4 class="modal-title" id="editarCobro\', escape=False)\n    response.write(cobro.cobros.id)\n    response.write(\'Label">Editar pago</h4>\\n      </div>\\n      <div class="modal-body">\\n\\t    \', escape=False)\n    response.write(crud.update(db.cobros, cobro.cobros.id, next=URL(\'default\',\'cobros\'), deletable=False))\n    response.write(\'\\n      </div>\\n    </div>\\n  </div>\\n</div>\\n\', escape=False)\n    pass\nresponse.write(\'\\n\', escape=False)\nresponse.write(\'\\r\\n      </div><!-- /#page-wrapper -->\\r\\n\\r\\n    </div><!-- /#wrapper -->\\r\\n\\r\\n    <!-- JavaScript -->\\r\\n    <script src="\', escape=False)\nresponse.write(URL(\'static\',\'js/jquery-1.10.2.js\'))\nresponse.write(\'"></script>\\r\\n    <script src="\', escape=False)\nresponse.write(URL(\'static\',\'js/bootstrap.min.js\'))\nresponse.write(\'"></script>\\r\\n    <script src="\', escape=False)\nresponse.write(URL(\'static\',\'js/web2py_bootstrap.js\'))\nresponse.write(\'"></script>\\r\\n    <script src="\', escape=False)\nresponse.write(URL(\'static\',\'js/jquery.dataTables.js\'))\nresponse.write(\'"></script>\\r\\n    <script src="\', escape=False)\nresponse.write(URL(\'static\',\'js/dataTables.bootstrap.js\'))\nresponse.write(\'"></script>\\r\\n    <!-- Page Specific Plugins -->\\r\\n    <script src="\', escape=False)\nresponse.write(URL(\'static\',\'js/tablesorter/jquery.tablesorter.js\'))\nresponse.write(\'"></script>\\r\\n    <script src="\', escape=False)\nresponse.write(URL(\'static\',\'js/tablesorter/tables.js\'))\nresponse.write(\'"></script>\\r\\n    <script type="text/javascript">\\r\\n      $(document).ready(function(){\\r\\n\\r\\n          $(\\\'form input\\\').addClass(\\\'form-control\\\');\\r\\n          $(\\\'.w2p_fw\\\').css(\\\'width\\\', \\\'100%\\\');\\r\\n          $(\\\'.w2p_fc\\\').css({\\\'color\\\': \\\'grey\\\', \\\'font-size\\\':\\\'10px\\\', \\\'font-style\\\':\\\'italic\\\'});\\r\\n          $(\\\'form input\\\').addClass(\\\'input-xlarge\\\');\\r\\n          $(\\\'form select\\\').addClass(\\\'form-control\\\');\\r\\n          $(\\\'input[type="submit"]\\\').removeClass(\\\'form-control\\\');\\r\\n          $(\\\'input[type="submit"]\\\').addClass(\\\'btn-primary\\\');\\r\\n          $(\\\'input[type="submit"]\\\').addClass(\\\'btn-block\\\');\\r\\n\\t  $(\\\'#fbody\\\').dataTable(\\r\\n\\t      {\\r\\n\\t\\t  "language": {\\r\\n\\t\\t      "url": "\', escape=False)\nresponse.write(URL(\'static\',\'js/Spanish.json\'))\nresponse.write(\'"\\r\\n\\t\\t  }\\r\\n\\t      });\\r\\n      });\\r\\n    </script>\\r\\n  </body>\\r\\n</html>\\r\\n\', escape=False)'
p7
sS'snapshot'
p8
(dp9
sS'traceback'
p10
S'Traceback (most recent call last):\n  File "/home/marco/trabajo/experimental/web2py/gluon/restricted.py", line 220, in restricted\n    exec ccode in environment\n  File "/home/marco/trabajo/experimental/web2py/applications/sisapretty/views/default/cobros.html", line 72, in <module>\n  File "/home/marco/trabajo/experimental/web2py/gluon/dal.py", line 7436, in __getitem__\n    raise ae\nAttributeError: \'Row\' object has no attribute \'cancelado\'\n'
p11
s.